target datalayout = "e-m:e-p270:32:32-p271:32:32-p272:64:64-i64:64-i128:128-f80:128-n8:16:32:64-S128"
target triple = "x86_64-pc-linux-gnu"

; Function Attrs: mustprogress uwtable
define hidden void @_ZN4cvc58internal8rewriter8addRulesERNS1_9RewriteDbE(ptr noundef nonnull align 8 dereferenceable(544) %0) #4 {
  %2 = alloca ptr, align 8
  store ptr %0, ptr %2, align 8, !tbaa !3
  %3 = load ptr, ptr %2, align 8, !tbaa !3
  call void @_ZN4cvc58internal8rewriter26addRewrites_arith_rewritesERNS1_9RewriteDbE(ptr noundef nonnull align 8 dereferenceable(544) %3)
  %4 = load ptr, ptr %2, align 8, !tbaa !3
  call void @_ZN4cvc58internal8rewriter27addRewrites_arrays_rewritesERNS1_9RewriteDbE(ptr noundef nonnull align 8 dereferenceable(544) %4)
  %5 = load ptr, ptr %2, align 8, !tbaa !3
  call void @_ZN4cvc58internal8rewriter29addRewrites_booleans_rewritesERNS1_9RewriteDbE(ptr noundef nonnull align 8 dereferenceable(544) %5)
  %6 = load ptr, ptr %2, align 8, !tbaa !3
  call void @_ZN4cvc58internal8rewriter28addRewrites_builtin_rewritesERNS1_9RewriteDbE(ptr noundef nonnull align 8 dereferenceable(544) %6)
  %7 = load ptr, ptr %2, align 8, !tbaa !3
  call void @_ZN4cvc58internal8rewriter23addRewrites_bv_rewritesERNS1_9RewriteDbE(ptr noundef nonnull align 8 dereferenceable(544) %7)
  %8 = load ptr, ptr %2, align 8, !tbaa !3
  call void @_ZN4cvc58internal8rewriter35addRewrites_bv_rewrites_eliminationERNS1_9RewriteDbE(ptr noundef nonnull align 8 dereferenceable(544) %8)
  %9 = load ptr, ptr %2, align 8, !tbaa !3
  call void @_ZN4cvc58internal8rewriter38addRewrites_bv_rewrites_simplificationERNS1_9RewriteDbE(ptr noundef nonnull align 8 dereferenceable(544) %9)
  %10 = load ptr, ptr %2, align 8, !tbaa !3
  call void @_ZN4cvc58internal8rewriter25addRewrites_sets_rewritesERNS1_9RewriteDbE(ptr noundef nonnull align 8 dereferenceable(544) %10)
  %11 = load ptr, ptr %2, align 8, !tbaa !3
  call void @_ZN4cvc58internal8rewriter28addRewrites_strings_rewritesERNS1_9RewriteDbE(ptr noundef nonnull align 8 dereferenceable(544) %11)
  %12 = load ptr, ptr %2, align 8, !tbaa !3
  call void @_ZN4cvc58internal8rewriter46addRewrites_strings_rewrites_regexp_membershipERNS1_9RewriteDbE(ptr noundef nonnull align 8 dereferenceable(544) %12)
  %13 = load ptr, ptr %2, align 8, !tbaa !3
  call void @_ZN4cvc58internal8rewriter23addRewrites_uf_rewritesERNS1_9RewriteDbE(ptr noundef nonnull align 8 dereferenceable(544) %13)
  %14 = load ptr, ptr %2, align 8, !tbaa !3
  call void @_ZN4cvc58internal8rewriter42addRewrites_arith_rewrites_transcendentalsERNS1_9RewriteDbE(ptr noundef nonnull align 8 dereferenceable(544) %14)
  %15 = load ptr, ptr %2, align 8, !tbaa !3
  call void @_ZN4cvc58internal8rewriter30addRewrites_sets_rewrites_cardERNS1_9RewriteDbE(ptr noundef nonnull align 8 dereferenceable(544) %15)
  ret void
}