; Function Attrs: mustprogress uwtable
define hidden void @_ZN4cvc58internal8rewriter8addRulesERNS1_9RewriteDbE(ptr noundef nonnull align 8 dereferenceable(544) %0) local_unnamed_addr #3 {
  tail call void @_ZN4cvc58internal8rewriter26addRewrites_arith_rewritesERNS1_9RewriteDbE(ptr noundef nonnull align 8 dereferenceable(544) %0)
  tail call void @_ZN4cvc58internal8rewriter27addRewrites_arrays_rewritesERNS1_9RewriteDbE(ptr noundef nonnull align 8 dereferenceable(544) %0)
  tail call void @_ZN4cvc58internal8rewriter29addRewrites_booleans_rewritesERNS1_9RewriteDbE(ptr noundef nonnull align 8 dereferenceable(544) %0)
  tail call void @_ZN4cvc58internal8rewriter28addRewrites_builtin_rewritesERNS1_9RewriteDbE(ptr noundef nonnull align 8 dereferenceable(544) %0)
  tail call void @_ZN4cvc58internal8rewriter23addRewrites_bv_rewritesERNS1_9RewriteDbE(ptr noundef nonnull align 8 dereferenceable(544) %0)
  tail call void @_ZN4cvc58internal8rewriter35addRewrites_bv_rewrites_eliminationERNS1_9RewriteDbE(ptr noundef nonnull align 8 dereferenceable(544) %0)
  tail call void @_ZN4cvc58internal8rewriter38addRewrites_bv_rewrites_simplificationERNS1_9RewriteDbE(ptr noundef nonnull align 8 dereferenceable(544) %0)
  tail call void @_ZN4cvc58internal8rewriter25addRewrites_sets_rewritesERNS1_9RewriteDbE(ptr noundef nonnull align 8 dereferenceable(544) %0)
  tail call void @_ZN4cvc58internal8rewriter28addRewrites_strings_rewritesERNS1_9RewriteDbE(ptr noundef nonnull align 8 dereferenceable(544) %0)
  tail call void @_ZN4cvc58internal8rewriter46addRewrites_strings_rewrites_regexp_membershipERNS1_9RewriteDbE(ptr noundef nonnull align 8 dereferenceable(544) %0)
  tail call void @_ZN4cvc58internal8rewriter23addRewrites_uf_rewritesERNS1_9RewriteDbE(ptr noundef nonnull align 8 dereferenceable(544) %0)
  tail call void @_ZN4cvc58internal8rewriter42addRewrites_arith_rewrites_transcendentalsERNS1_9RewriteDbE(ptr noundef nonnull align 8 dereferenceable(544) %0)
  tail call void @_ZN4cvc58internal8rewriter30addRewrites_sets_rewrites_cardERNS1_9RewriteDbE(ptr noundef nonnull align 8 dereferenceable(544) %0)
  ret void
}